; Function Attrs: nounwind uwtable
define dso_local void @ExecInitScanTupleSlot(ptr noundef captures(none) %0, ptr noundef writeonly captures(none) initializes((152, 168), (192, 193), (196, 197), (216, 224)) %1, ptr noundef %2, ptr noundef %3) local_unnamed_addr #1 {
  %5 = load i64, ptr %3, align 8
  %.not.i.i = icmp eq ptr %2, null
  br i1 %.not.i.i, label %16, label %6

6:                                                ; preds = %4
  %7 = add i64 %5, 7
  %8 = and i64 %7, -8
  %9 = load i32, ptr %2, align 8
  %10 = sext i32 %9 to i64
  %11 = shl nsw i64 %10, 3
  %12 = add i64 %11, %8
  %13 = add nsw i64 %10, 7
  %14 = and i64 %13, -8
  %15 = add i64 %12, %14
  br label %16

16:                                               ; preds = %6, %4
  %spec.select.v.i.i = phi i16 [ 18, %6 ], [ 2, %4 ]
  %.0.i.i = phi i64 [ %15, %6 ], [ %5, %4 ]
  %17 = tail call ptr @palloc0(i64 noundef %.0.i.i) #14
  %18 = getelementptr inbounds nuw i8, ptr %17, i64 8
  store ptr %3, ptr %18, align 8
  store i32 442, ptr %17, align 8
  %19 = getelementptr inbounds nuw i8, ptr %17, i64 4
  %20 = load i16, ptr %19, align 4
  %spec.select.i.i = or i16 %20, %spec.select.v.i.i
  store i16 %spec.select.i.i, ptr %19, align 4
  %21 = getelementptr inbounds nuw i8, ptr %17, i64 16
  store ptr %2, ptr %21, align 8
  %22 = load ptr, ptr @CurrentMemoryContext, align 8
  %23 = getelementptr inbounds nuw i8, ptr %17, i64 40
  store ptr %22, ptr %23, align 8
  %24 = getelementptr inbounds nuw i8, ptr %17, i64 6
  store i16 0, ptr %24, align 2
  br i1 %.not.i.i, label %ExecAllocTableSlot.exit, label %25

25:                                               ; preds = %16
  %26 = add i64 %5, 7
  %27 = and i64 %26, -8
  %28 = getelementptr inbounds nuw i8, ptr %17, i64 %27
  %29 = getelementptr inbounds nuw i8, ptr %17, i64 24
  store ptr %28, ptr %29, align 8
  %30 = load i32, ptr %2, align 8
  %31 = sext i32 %30 to i64
  %32 = shl nsw i64 %31, 3
  %33 = getelementptr inbounds nuw i8, ptr %28, i64 %32
  %34 = getelementptr inbounds nuw i8, ptr %17, i64 32
  store ptr %33, ptr %34, align 8
  %35 = getelementptr inbounds nuw i8, ptr %2, i64 12
  %36 = load i32, ptr %35, align 4
  %37 = icmp sgt i32 %36, -1
  br i1 %37, label %38, label %ExecAllocTableSlot.exit

38:                                               ; preds = %25
  tail call void @IncrTupleDescRefCount(ptr noundef nonnull %2) #14
  %.pre.i.i = load ptr, ptr %18, align 8
  br label %ExecAllocTableSlot.exit

ExecAllocTableSlot.exit:                          ; preds = %16, %25, %38
  %39 = phi ptr [ %3, %25 ], [ %.pre.i.i, %38 ], [ %3, %16 ]
  %40 = getelementptr inbounds nuw i8, ptr %0, i64 200
  %41 = getelementptr inbounds nuw i8, ptr %39, i64 8
  %42 = load ptr, ptr %41, align 8
  tail call void %42(ptr noundef nonnull %17) #14
  %43 = load ptr, ptr %40, align 8
  %44 = tail call ptr @lappend(ptr noundef %43, ptr noundef nonnull %17) #14
  store ptr %44, ptr %40, align 8
  %45 = getelementptr inbounds nuw i8, ptr %1, i64 216
  store ptr %17, ptr %45, align 8
  %46 = getelementptr inbounds nuw i8, ptr %1, i64 152
  store ptr %2, ptr %46, align 8
  %47 = icmp ne ptr %2, null
  %48 = getelementptr inbounds nuw i8, ptr %1, i64 192
  %49 = zext i1 %47 to i8
  store i8 %49, ptr %48, align 8
  %50 = getelementptr inbounds nuw i8, ptr %1, i64 160
  store ptr %3, ptr %50, align 8
  %51 = getelementptr inbounds nuw i8, ptr %1, i64 196
  store i8 1, ptr %51, align 4
  ret void
}